target datalayout = "e-m:e-p270:32:32-p271:32:32-p272:64:64-i64:64-i128:128-f80:128-n8:16:32:64-S128"
target triple = "x86_64-pc-linux-gnu"

%struct.fname = type { ptr, i32, i32 }

; Function Attrs: nounwind uwtable
define dso_local ptr @fname_remote_string(ptr noundef %0) #0 {
  %2 = alloca ptr, align 8
  %3 = alloca ptr, align 8
  store ptr %0, ptr %3, align 8
  %4 = load ptr, ptr %3, align 8
  %5 = getelementptr inbounds nuw %struct.fname, ptr %4, i32 0, i32 1
  %6 = load i32, ptr %5, align 8
  %7 = icmp eq i32 %6, 2
  br i1 %7, label %13, label %8

8:                                                ; preds = %1
  %9 = load ptr, ptr %3, align 8
  %10 = getelementptr inbounds nuw %struct.fname, ptr %9, i32 0, i32 1
  %11 = load i32, ptr %10, align 8
  %12 = icmp eq i32 %11, 1
  br i1 %12, label %13, label %18

13:                                               ; preds = %8, %1
  %14 = load ptr, ptr %3, align 8
  %15 = getelementptr inbounds nuw %struct.fname, ptr %14, i32 0, i32 0
  %16 = load ptr, ptr %15, align 8
  %17 = call ptr @xstrdup(ptr noundef %16)
  store ptr %17, ptr %2, align 8
  br label %19

18:                                               ; preds = %8
  store ptr null, ptr %2, align 8
  br label %19

19:                                               ; preds = %18, %13
  %20 = load ptr, ptr %2, align 8
  ret ptr %20
}