; Function Attrs: nounwind uwtable
define dso_local ptr @fname_remote_string(ptr noundef readonly captures(none) %0) local_unnamed_addr #0 {
  %2 = getelementptr inbounds nuw i8, ptr %0, i64 8
  %3 = load i32, ptr %2, align 8
  %.off = add i32 %3, -1
  %switch = icmp ult i32 %.off, 2
  br i1 %switch, label %4, label %7

4:                                                ; preds = %1
  %5 = load ptr, ptr %0, align 8
  %6 = tail call ptr @xstrdup(ptr noundef %5) #8
  br label %7

7:                                                ; preds = %1, %4
  %.0 = phi ptr [ %6, %4 ], [ null, %1 ]
  ret ptr %.0
}